target datalayout = "e-m:e-p270:32:32-p271:32:32-p272:64:64-i64:64-i128:128-f80:128-n8:16:32:64-S128"
target triple = "x86_64-pc-linux-gnu"

%struct._Unwind_Exception = type { i64, ptr, i64, i64 }
%"struct.__cxxabiv1::__cxa_exception" = type { ptr, i64, ptr, ptr, ptr, ptr, ptr, i32, i32, ptr, ptr, ptr, ptr, %struct._Unwind_Exception }
%"struct.__cxxabiv1::__cxa_eh_globals" = type { ptr, i32 }
%"struct.__cxxabiv1::__cxa_dependent_exception" = type { ptr, ptr, ptr, ptr, ptr, ptr, ptr, i32, i32, ptr, ptr, ptr, ptr, %struct._Unwind_Exception }

; Function Attrs: inlinehint mustprogress nounwind uwtable
define internal noundef i64 @_ZNSt3__112_GLOBAL__N_119__libcpp_atomic_addB8ne210000ImmEET_PS2_T0_i(ptr noundef %0, i64 noundef %1, i32 noundef %2) #8 {
  %4 = alloca ptr, align 8
  %5 = alloca i64, align 8
  %6 = alloca i32, align 4
  %7 = alloca i64, align 8
  %8 = alloca i64, align 8
  store ptr %0, ptr %4, align 8, !tbaa !45
  store i64 %1, ptr %5, align 8, !tbaa !9
  store i32 %2, ptr %6, align 4, !tbaa !47
  %9 = load ptr, ptr %4, align 8, !tbaa !45
  %10 = load i32, ptr %6, align 4, !tbaa !47
  %11 = load i64, ptr %5, align 8, !tbaa !9
  store i64 %11, ptr %7, align 8, !tbaa !9
  switch i32 %10, label %12 [
    i32 1, label %16
    i32 2, label %16
    i32 3, label %20
    i32 4, label %24
    i32 5, label %28
  ]

12:                                               ; preds = %3
  %13 = load i64, ptr %7, align 8
  %14 = atomicrmw add ptr %9, i64 %13 monotonic, align 8
  %15 = add i64 %14, %13
  store i64 %15, ptr %8, align 8
  br label %32

16:                                               ; preds = %3, %3
  %17 = load i64, ptr %7, align 8
  %18 = atomicrmw add ptr %9, i64 %17 acquire, align 8
  %19 = add i64 %18, %17
  store i64 %19, ptr %8, align 8
  br label %32

20:                                               ; preds = %3
  %21 = load i64, ptr %7, align 8
  %22 = atomicrmw add ptr %9, i64 %21 release, align 8
  %23 = add i64 %22, %21
  store i64 %23, ptr %8, align 8
  br label %32

24:                                               ; preds = %3
  %25 = load i64, ptr %7, align 8
  %26 = atomicrmw add ptr %9, i64 %25 acq_rel, align 8
  %27 = add i64 %26, %25
  store i64 %27, ptr %8, align 8
  br label %32

28:                                               ; preds = %3
  %29 = load i64, ptr %7, align 8
  %30 = atomicrmw add ptr %9, i64 %29 seq_cst, align 8
  %31 = add i64 %30, %29
  store i64 %31, ptr %8, align 8
  br label %32

32:                                               ; preds = %28, %24, %20, %16, %12
  %33 = load i64, ptr %8, align 8, !tbaa !9
  ret i64 %33
}

; Function Attrs: mustprogress nounwind uwtable
define hidden noundef i64 @_ZN10__cxxabiv119__getExceptionClassEPK17_Unwind_Exception(ptr noundef %0) #0 {
  %2 = alloca ptr, align 8
  %3 = alloca i64, align 8
  store ptr %0, ptr %2, align 8, !tbaa !4
  call void @llvm.lifetime.start.p0(i64 8, ptr %3) #14
  %4 = load ptr, ptr %2, align 8, !tbaa !4
  %5 = getelementptr inbounds nuw %struct._Unwind_Exception, ptr %4, i32 0, i32 0
  call void @llvm.memcpy.p0.p0.i64(ptr align 8 %3, ptr align 16 %5, i64 8, i1 false)
  %6 = load i64, ptr %3, align 8, !tbaa !9
  call void @llvm.lifetime.end.p0(i64 8, ptr %3) #14
  ret i64 %6
}

; Function Attrs: mustprogress nounwind uwtable
define dso_local void @__cxa_increment_exception_refcount(ptr noundef %0) #0 personality ptr @__gxx_personality_v0 {
  %2 = alloca ptr, align 8
  %3 = alloca ptr, align 8
  store ptr %0, ptr %2, align 8, !tbaa !15
  %4 = load ptr, ptr %2, align 8, !tbaa !15
  %5 = icmp ne ptr %4, null
  br i1 %5, label %6, label %14

6:                                                ; preds = %1
  call void @llvm.lifetime.start.p0(i64 8, ptr %3) #14
  %7 = load ptr, ptr %2, align 8, !tbaa !15
  %8 = invoke noundef ptr @_ZN10__cxxabiv1L32cxa_exception_from_thrown_objectEPv(ptr noundef %7)
          to label %9 unwind label %15

9:                                                ; preds = %6
  store ptr %8, ptr %3, align 8, !tbaa !13
  %10 = load ptr, ptr %3, align 8, !tbaa !13
  %11 = getelementptr inbounds nuw %"struct.__cxxabiv1::__cxa_exception", ptr %10, i32 0, i32 1
  %12 = invoke noundef i64 @_ZNSt3__112_GLOBAL__N_119__libcpp_atomic_addB8ne210000ImmEET_PS2_T0_i(ptr noundef %11, i64 noundef 1, i32 noundef 5)
          to label %13 unwind label %15

13:                                               ; preds = %9
  call void @llvm.lifetime.end.p0(i64 8, ptr %3) #14
  br label %14

14:                                               ; preds = %13, %1
  ret void

15:                                               ; preds = %9, %6
  %16 = landingpad { ptr, i32 }
          catch ptr null
  %17 = extractvalue { ptr, i32 } %16, 0
  call void @__clang_call_terminate(ptr %17) #15
  unreachable
}

; Function Attrs: inlinehint mustprogress nounwind uwtable
define internal noundef ptr @_ZN10__cxxabiv1L32thrown_object_from_cxa_exceptionEPNS_15__cxa_exceptionE(ptr noundef %0) #8 {
  %2 = alloca ptr, align 8
  store ptr %0, ptr %2, align 8, !tbaa !13
  %3 = load ptr, ptr %2, align 8, !tbaa !13
  %4 = getelementptr inbounds %"struct.__cxxabiv1::__cxa_exception", ptr %3, i64 1
  ret ptr %4
}

; Function Attrs: inlinehint mustprogress nounwind uwtable
define internal noundef ptr @_ZN10__cxxabiv1L32cxa_exception_from_thrown_objectEPv(ptr noundef %0) #8 {
  %2 = alloca ptr, align 8
  store ptr %0, ptr %2, align 8, !tbaa !15
  %3 = load ptr, ptr %2, align 8, !tbaa !15
  %4 = getelementptr inbounds %"struct.__cxxabiv1::__cxa_exception", ptr %3, i64 -1
  ret ptr %4
}

; Function Attrs: mustprogress nounwind uwtable
define internal noundef zeroext i1 @_ZN10__cxxabiv1L20isDependentExceptionEP17_Unwind_Exception(ptr noundef %0) #0 {
  %2 = alloca ptr, align 8
  store ptr %0, ptr %2, align 8, !tbaa !4
  %3 = load ptr, ptr %2, align 8, !tbaa !4
  %4 = call noundef i64 @_ZN10__cxxabiv119__getExceptionClassEPK17_Unwind_Exception(ptr noundef %3)
  %5 = and i64 %4, 255
  %6 = icmp eq i64 %5, 1
  ret i1 %6
}

; Function Attrs: mustprogress nounwind uwtable
define hidden noundef zeroext i1 @_ZN10__cxxabiv121__isOurExceptionClassEPK17_Unwind_Exception(ptr noundef %0) #0 {
  %2 = alloca ptr, align 8
  store ptr %0, ptr %2, align 8, !tbaa !4
  %3 = load ptr, ptr %2, align 8, !tbaa !4
  %4 = call noundef i64 @_ZN10__cxxabiv119__getExceptionClassEPK17_Unwind_Exception(ptr noundef %3)
  %5 = and i64 %4, -256
  %6 = icmp eq i64 %5, 4849336966747728640
  ret i1 %6
}

; Function Attrs: mustprogress nounwind uwtable
define dso_local ptr @__cxa_current_primary_exception() #0 personality ptr @__gxx_personality_v0 {
  %1 = alloca ptr, align 8
  %2 = alloca ptr, align 8
  %3 = alloca i32, align 4
  %4 = alloca ptr, align 8
  %5 = alloca ptr, align 8
  %6 = alloca ptr, align 8
  call void @llvm.lifetime.start.p0(i64 8, ptr %2) #14
  %7 = invoke ptr @__cxa_get_globals_fast()
          to label %8 unwind label %45

8:                                                ; preds = %0
  store ptr %7, ptr %2, align 8, !tbaa !18
  %9 = load ptr, ptr %2, align 8, !tbaa !18
  %10 = icmp eq ptr null, %9
  br i1 %10, label %11, label %12

11:                                               ; preds = %8
  store ptr null, ptr %1, align 8
  store i32 1, ptr %3, align 4
  br label %43

12:                                               ; preds = %8
  call void @llvm.lifetime.start.p0(i64 8, ptr %4) #14
  %13 = load ptr, ptr %2, align 8, !tbaa !18
  %14 = getelementptr inbounds nuw %"struct.__cxxabiv1::__cxa_eh_globals", ptr %13, i32 0, i32 0
  %15 = load ptr, ptr %14, align 8, !tbaa !27
  store ptr %15, ptr %4, align 8, !tbaa !13
  %16 = load ptr, ptr %4, align 8, !tbaa !13
  %17 = icmp eq ptr null, %16
  br i1 %17, label %18, label %19

18:                                               ; preds = %12
  store ptr null, ptr %1, align 8
  store i32 1, ptr %3, align 4
  br label %42

19:                                               ; preds = %12
  %20 = load ptr, ptr %4, align 8, !tbaa !13
  %21 = getelementptr inbounds nuw %"struct.__cxxabiv1::__cxa_exception", ptr %20, i32 0, i32 13
  %22 = call noundef zeroext i1 @_ZN10__cxxabiv121__isOurExceptionClassEPK17_Unwind_Exception(ptr noundef %21)
  br i1 %22, label %24, label %23

23:                                               ; preds = %19
  store ptr null, ptr %1, align 8
  store i32 1, ptr %3, align 4
  br label %42

24:                                               ; preds = %19
  %25 = load ptr, ptr %4, align 8, !tbaa !13
  %26 = getelementptr inbounds nuw %"struct.__cxxabiv1::__cxa_exception", ptr %25, i32 0, i32 13
  %27 = invoke noundef zeroext i1 @_ZN10__cxxabiv1L20isDependentExceptionEP17_Unwind_Exception(ptr noundef %26)
          to label %28 unwind label %45

28:                                               ; preds = %24
  br i1 %27, label %29, label %36

29:                                               ; preds = %28
  call void @llvm.lifetime.start.p0(i64 8, ptr %5) #14
  %30 = load ptr, ptr %4, align 8, !tbaa !13
  store ptr %30, ptr %5, align 8, !tbaa !41
  %31 = load ptr, ptr %5, align 8, !tbaa !41
  %32 = getelementptr inbounds nuw %"struct.__cxxabiv1::__cxa_dependent_exception", ptr %31, i32 0, i32 1
  %33 = load ptr, ptr %32, align 8, !tbaa !43
  %34 = invoke noundef ptr @_ZN10__cxxabiv1L32cxa_exception_from_thrown_objectEPv(ptr noundef %33)
          to label %35 unwind label %45

35:                                               ; preds = %29
  store ptr %34, ptr %4, align 8, !tbaa !13
  call void @llvm.lifetime.end.p0(i64 8, ptr %5) #14
  br label %36

36:                                               ; preds = %35, %28
  call void @llvm.lifetime.start.p0(i64 8, ptr %6) #14
  %37 = load ptr, ptr %4, align 8, !tbaa !13
  %38 = invoke noundef ptr @_ZN10__cxxabiv1L32thrown_object_from_cxa_exceptionEPNS_15__cxa_exceptionE(ptr noundef %37)
          to label %39 unwind label %45

39:                                               ; preds = %36
  store ptr %38, ptr %6, align 8, !tbaa !15
  %40 = load ptr, ptr %6, align 8, !tbaa !15
  call void @__cxa_increment_exception_refcount(ptr noundef %40) #14
  %41 = load ptr, ptr %6, align 8, !tbaa !15
  store ptr %41, ptr %1, align 8
  store i32 1, ptr %3, align 4
  call void @llvm.lifetime.end.p0(i64 8, ptr %6) #14
  br label %42

42:                                               ; preds = %39, %23, %18
  call void @llvm.lifetime.end.p0(i64 8, ptr %4) #14
  br label %43

43:                                               ; preds = %42, %11
  call void @llvm.lifetime.end.p0(i64 8, ptr %2) #14
  %44 = load ptr, ptr %1, align 8
  ret ptr %44

45:                                               ; preds = %36, %29, %24, %0
  %46 = landingpad { ptr, i32 }
          catch ptr null
  %47 = extractvalue { ptr, i32 } %46, 0
  call void @__clang_call_terminate(ptr %47) #15
  unreachable
}