; Function Attrs: mustprogress nounwind uwtable
define dso_local ptr @__cxa_current_primary_exception() local_unnamed_addr #2 personality ptr @__gxx_personality_v0 {
  %1 = invoke ptr @__cxa_get_globals_fast()
          to label %2 unwind label %23

2:                                                ; preds = %0
  %3 = icmp eq ptr %1, null
  br i1 %3, label %22, label %4

4:                                                ; preds = %2
  %5 = load ptr, ptr %1, align 8, !tbaa !15
  %6 = icmp eq ptr %5, null
  br i1 %6, label %22, label %7

7:                                                ; preds = %4
  %8 = getelementptr inbounds nuw i8, ptr %5, i64 96
  %.0.copyload.i.i = load i64, ptr %8, align 16
  %9 = and i64 %.0.copyload.i.i, -256
  %10 = icmp eq i64 %9, 4849336966747728640
  br i1 %10, label %11, label %22

11:                                               ; preds = %7
  %12 = and i64 %.0.copyload.i.i, 255
  %13 = icmp eq i64 %12, 1
  br i1 %13, label %14, label %18

14:                                               ; preds = %11
  %15 = getelementptr inbounds nuw i8, ptr %5, i64 8
  %16 = load ptr, ptr %15, align 8, !tbaa !26
  %17 = getelementptr inbounds i8, ptr %16, i64 -128
  br label %18

18:                                               ; preds = %14, %11
  %.011 = phi ptr [ %17, %14 ], [ %5, %11 ]
  %19 = getelementptr inbounds nuw i8, ptr %.011, i64 128
  %20 = getelementptr inbounds nuw i8, ptr %.011, i64 8
  %21 = atomicrmw add ptr %20, i64 1 seq_cst, align 8
  br label %22

22:                                               ; preds = %18, %4, %7, %2
  %.0 = phi ptr [ null, %2 ], [ %19, %18 ], [ null, %4 ], [ null, %7 ]
  ret ptr %.0

23:                                               ; preds = %0
  %24 = landingpad { ptr, i32 }
          catch ptr null
  %25 = extractvalue { ptr, i32 } %24, 0
  tail call void @__clang_call_terminate(ptr %25) #16
  unreachable
}